Archive member included to satisfy reference by file (symbol)

/home/aheebwa/Documents/AVR Utils/toolchain/bin/../lib/gcc/avr/7.3.0/../../../../avr/lib/avr6/libm.a(addsf3.o)
                              build/default/debug/main.o (__addsf3)
/home/aheebwa/Documents/AVR Utils/toolchain/bin/../lib/gcc/avr/7.3.0/../../../../avr/lib/avr6/libm.a(addsf3x.o)
                              /home/aheebwa/Documents/AVR Utils/toolchain/bin/../lib/gcc/avr/7.3.0/../../../../avr/lib/avr6/libm.a(addsf3.o) (__addsf3x)
/home/aheebwa/Documents/AVR Utils/toolchain/bin/../lib/gcc/avr/7.3.0/../../../../avr/lib/avr6/libm.a(cmpsf2.o)
                              build/default/debug/main.o (__lesf2)
/home/aheebwa/Documents/AVR Utils/toolchain/bin/../lib/gcc/avr/7.3.0/../../../../avr/lib/avr6/libm.a(fixunssfsi.o)
                              build/default/debug/main.o (__fixunssfsi)
/home/aheebwa/Documents/AVR Utils/toolchain/bin/../lib/gcc/avr/7.3.0/../../../../avr/lib/avr6/libm.a(floatsisf.o)
                              build/default/debug/main.o (__floatunsisf)
/home/aheebwa/Documents/AVR Utils/toolchain/bin/../lib/gcc/avr/7.3.0/../../../../avr/lib/avr6/libm.a(fp_cmp.o)
                              /home/aheebwa/Documents/AVR Utils/toolchain/bin/../lib/gcc/avr/7.3.0/../../../../avr/lib/avr6/libm.a(cmpsf2.o) (__fp_cmp)
/home/aheebwa/Documents/AVR Utils/toolchain/bin/../lib/gcc/avr/7.3.0/../../../../avr/lib/avr6/libm.a(fp_inf.o)
                              /home/aheebwa/Documents/AVR Utils/toolchain/bin/../lib/gcc/avr/7.3.0/../../../../avr/lib/avr6/libm.a(addsf3x.o) (__fp_inf)
/home/aheebwa/Documents/AVR Utils/toolchain/bin/../lib/gcc/avr/7.3.0/../../../../avr/lib/avr6/libm.a(fp_nan.o)
                              /home/aheebwa/Documents/AVR Utils/toolchain/bin/../lib/gcc/avr/7.3.0/../../../../avr/lib/avr6/libm.a(addsf3x.o) (__fp_nan)
/home/aheebwa/Documents/AVR Utils/toolchain/bin/../lib/gcc/avr/7.3.0/../../../../avr/lib/avr6/libm.a(fp_pscA.o)
                              /home/aheebwa/Documents/AVR Utils/toolchain/bin/../lib/gcc/avr/7.3.0/../../../../avr/lib/avr6/libm.a(addsf3x.o) (__fp_pscA)
/home/aheebwa/Documents/AVR Utils/toolchain/bin/../lib/gcc/avr/7.3.0/../../../../avr/lib/avr6/libm.a(fp_pscB.o)
                              /home/aheebwa/Documents/AVR Utils/toolchain/bin/../lib/gcc/avr/7.3.0/../../../../avr/lib/avr6/libm.a(addsf3x.o) (__fp_pscB)
/home/aheebwa/Documents/AVR Utils/toolchain/bin/../lib/gcc/avr/7.3.0/../../../../avr/lib/avr6/libm.a(fp_round.o)
                              /home/aheebwa/Documents/AVR Utils/toolchain/bin/../lib/gcc/avr/7.3.0/../../../../avr/lib/avr6/libm.a(addsf3.o) (__fp_round)
/home/aheebwa/Documents/AVR Utils/toolchain/bin/../lib/gcc/avr/7.3.0/../../../../avr/lib/avr6/libm.a(fp_split3.o)
                              /home/aheebwa/Documents/AVR Utils/toolchain/bin/../lib/gcc/avr/7.3.0/../../../../avr/lib/avr6/libm.a(addsf3x.o) (__fp_split3)
/home/aheebwa/Documents/AVR Utils/toolchain/bin/../lib/gcc/avr/7.3.0/../../../../avr/lib/avr6/libm.a(fp_zero.o)
                              /home/aheebwa/Documents/AVR Utils/toolchain/bin/../lib/gcc/avr/7.3.0/../../../../avr/lib/avr6/libm.a(addsf3x.o) (__fp_zero)
/home/aheebwa/Documents/AVR Utils/toolchain/bin/../lib/gcc/avr/7.3.0/../../../../avr/lib/avr6/libm.a(mulsf3.o)
                              build/default/debug/main.o (__mulsf3)
/home/aheebwa/Documents/AVR Utils/toolchain/bin/../lib/gcc/avr/7.3.0/../../../../avr/lib/avr6/libm.a(mulsf3x.o)
                              /home/aheebwa/Documents/AVR Utils/toolchain/bin/../lib/gcc/avr/7.3.0/../../../../avr/lib/avr6/libm.a(mulsf3.o) (__mulsf3x)
/home/aheebwa/Documents/AVR Utils/toolchain/bin/../lib/gcc/avr/7.3.0/avr6/libgcc.a(_divmodhi4.o)
                              build/default/debug/main.o (__divmodhi4)
/home/aheebwa/Documents/AVR Utils/toolchain/bin/../lib/gcc/avr/7.3.0/avr6/libgcc.a(_exit.o)
                              /Home/microchip/mplabx/v6.20/packs/Microchip/ATmega_DFP/3.1.264/gcc/dev/atmega2560/avr6/crtatmega2560.o (exit)
/home/aheebwa/Documents/AVR Utils/toolchain/bin/../lib/gcc/avr/7.3.0/avr6/libgcc.a(_copy_data.o)
                              build/default/debug/main.o (__do_copy_data)
/home/aheebwa/Documents/AVR Utils/toolchain/bin/../lib/gcc/avr/7.3.0/avr6/libgcc.a(_clear_bss.o)
                              build/default/debug/main.o (__do_clear_bss)
/home/aheebwa/Documents/AVR Utils/toolchain/bin/../lib/gcc/avr/7.3.0/avr6/libgcc.a(_udivmodhi4.o)
                              /home/aheebwa/Documents/AVR Utils/toolchain/bin/../lib/gcc/avr/7.3.0/avr6/libgcc.a(_divmodhi4.o) (__udivmodhi4)
/home/aheebwa/Documents/AVR Utils/toolchain/bin/../lib/gcc/avr/7.3.0/../../../../avr/lib/avr6/libc.a(rand.o)
                              build/default/debug/main.o (rand)
/home/aheebwa/Documents/AVR Utils/toolchain/bin/../lib/gcc/avr/7.3.0/../../../../avr/lib/avr6/libc.a(strcmp.o)
                              build/default/debug/main.o (strcmp)
/home/aheebwa/Documents/AVR Utils/toolchain/bin/../lib/gcc/avr/7.3.0/../../../../avr/lib/avr6/libc.a(strncpy.o)
                              build/default/debug/main.o (strncpy)
/home/aheebwa/Documents/AVR Utils/toolchain/bin/../lib/gcc/avr/7.3.0/../../../../avr/lib/avr6/libc.a(itoa_ncheck.o)
                              build/default/debug/main.o (__itoa_ncheck)
/home/aheebwa/Documents/AVR Utils/toolchain/bin/../lib/gcc/avr/7.3.0/../../../../avr/lib/avr6/libc.a(utoa_ncheck.o)
                              /home/aheebwa/Documents/AVR Utils/toolchain/bin/../lib/gcc/avr/7.3.0/../../../../avr/lib/avr6/libc.a(itoa_ncheck.o) (__utoa_common)
/home/aheebwa/Documents/AVR Utils/toolchain/bin/../lib/gcc/avr/7.3.0/../../../../avr/lib/avr6/libc.a(time.o)
                              build/default/debug/main.o (time)
/home/aheebwa/Documents/AVR Utils/toolchain/bin/../lib/gcc/avr/7.3.0/../../../../avr/lib/avr6/libc.a(strrev.o)
                              /home/aheebwa/Documents/AVR Utils/toolchain/bin/../lib/gcc/avr/7.3.0/../../../../avr/lib/avr6/libc.a(utoa_ncheck.o) (strrev)
/home/aheebwa/Documents/AVR Utils/toolchain/bin/../lib/gcc/avr/7.3.0/../../../../avr/lib/avr6/libc.a(system_time.o)
                              /home/aheebwa/Documents/AVR Utils/toolchain/bin/../lib/gcc/avr/7.3.0/../../../../avr/lib/avr6/libc.a(time.o) (__system_time)
/home/aheebwa/Documents/AVR Utils/toolchain/bin/../lib/gcc/avr/7.3.0/avr6/libgcc.a(_divmodsi4.o)
                              /home/aheebwa/Documents/AVR Utils/toolchain/bin/../lib/gcc/avr/7.3.0/../../../../avr/lib/avr6/libc.a(rand.o) (__divmodsi4)
/home/aheebwa/Documents/AVR Utils/toolchain/bin/../lib/gcc/avr/7.3.0/avr6/libgcc.a(_negsi2.o)
                              /home/aheebwa/Documents/AVR Utils/toolchain/bin/../lib/gcc/avr/7.3.0/avr6/libgcc.a(_divmodsi4.o) (__negsi2)
/home/aheebwa/Documents/AVR Utils/toolchain/bin/../lib/gcc/avr/7.3.0/avr6/libgcc.a(_muluhisi3.o)
                              /home/aheebwa/Documents/AVR Utils/toolchain/bin/../lib/gcc/avr/7.3.0/../../../../avr/lib/avr6/libc.a(rand.o) (__muluhisi3)
/home/aheebwa/Documents/AVR Utils/toolchain/bin/../lib/gcc/avr/7.3.0/avr6/libgcc.a(_mulshisi3.o)
                              /home/aheebwa/Documents/AVR Utils/toolchain/bin/../lib/gcc/avr/7.3.0/../../../../avr/lib/avr6/libc.a(rand.o) (__mulohisi3)
/home/aheebwa/Documents/AVR Utils/toolchain/bin/../lib/gcc/avr/7.3.0/avr6/libgcc.a(_udivmodsi4.o)
                              /home/aheebwa/Documents/AVR Utils/toolchain/bin/../lib/gcc/avr/7.3.0/avr6/libgcc.a(_divmodsi4.o) (__udivmodsi4)
/home/aheebwa/Documents/AVR Utils/toolchain/bin/../lib/gcc/avr/7.3.0/avr6/libgcc.a(_umulhisi3.o)
                              /home/aheebwa/Documents/AVR Utils/toolchain/bin/../lib/gcc/avr/7.3.0/avr6/libgcc.a(_muluhisi3.o) (__umulhisi3)

Allocating common symbols
Common symbol       size              file

__system_time       0x4               /home/aheebwa/Documents/AVR Utils/toolchain/bin/../lib/gcc/avr/7.3.0/../../../../avr/lib/avr6/libc.a(system_time.o)

Discarded input sections

 .data          0x0000000000000000        0x0 /Home/microchip/mplabx/v6.20/packs/Microchip/ATmega_DFP/3.1.264/gcc/dev/atmega2560/avr6/crtatmega2560.o
 .bss           0x0000000000000000        0x0 /Home/microchip/mplabx/v6.20/packs/Microchip/ATmega_DFP/3.1.264/gcc/dev/atmega2560/avr6/crtatmega2560.o
 .text          0x0000000000000000        0x0 build/default/debug/main.o
 .data          0x0000000000000000        0x0 build/default/debug/main.o
 .bss           0x0000000000000000        0x0 build/default/debug/main.o
 .text.uart_transmit
                0x0000000000000000       0x10 build/default/debug/main.o
 .text.uart_send_string
                0x0000000000000000       0x1e build/default/debug/main.o
 .text.getTime  0x0000000000000000        0xa build/default/debug/main.o
 .text.verify_access_code
                0x0000000000000000       0xd6 build/default/debug/main.o
 .text.generate_access_code
                0x0000000000000000       0x8a build/default/debug/main.o
 .text.generate_temp_code
                0x0000000000000000       0xa8 build/default/debug/main.o
 .rodata.generate_customer_access_code.str1.1
                0x0000000000000000       0x34 build/default/debug/main.o
 .text.generate_customer_access_code
                0x0000000000000000      0x1a2 build/default/debug/main.o
 .text.update_washroom_status
                0x0000000000000000        0x2 build/default/debug/main.o
 .text.bluetooth_init
                0x0000000000000000        0x2 build/default/debug/main.o
 .text.sensor_init
                0x0000000000000000        0x2 build/default/debug/main.o
 .text.poll     0x0000000000000000       0x20 build/default/debug/main.o
 .bss.people_upstairs
                0x0000000000000000        0x2 build/default/debug/main.o
 .bss.washrooms
                0x0000000000000000       0x24 build/default/debug/main.o
 .bss.temp_codes
                0x0000000000000000      0x118 build/default/debug/main.o
 .text          0x0000000000000000        0x0 /home/aheebwa/Documents/AVR Utils/toolchain/bin/../lib/gcc/avr/7.3.0/../../../../avr/lib/avr6/libm.a(addsf3.o)
 .data          0x0000000000000000        0x0 /home/aheebwa/Documents/AVR Utils/toolchain/bin/../lib/gcc/avr/7.3.0/../../../../avr/lib/avr6/libm.a(addsf3.o)
 .bss           0x0000000000000000        0x0 /home/aheebwa/Documents/AVR Utils/toolchain/bin/../lib/gcc/avr/7.3.0/../../../../avr/lib/avr6/libm.a(addsf3.o)
 .text          0x0000000000000000        0x0 /home/aheebwa/Documents/AVR Utils/toolchain/bin/../lib/gcc/avr/7.3.0/../../../../avr/lib/avr6/libm.a(addsf3x.o)
 .data          0x0000000000000000        0x0 /home/aheebwa/Documents/AVR Utils/toolchain/bin/../lib/gcc/avr/7.3.0/../../../../avr/lib/avr6/libm.a(addsf3x.o)
 .bss           0x0000000000000000        0x0 /home/aheebwa/Documents/AVR Utils/toolchain/bin/../lib/gcc/avr/7.3.0/../../../../avr/lib/avr6/libm.a(addsf3x.o)
 .text          0x0000000000000000        0x0 /home/aheebwa/Documents/AVR Utils/toolchain/bin/../lib/gcc/avr/7.3.0/../../../../avr/lib/avr6/libm.a(cmpsf2.o)
 .data          0x0000000000000000        0x0 /home/aheebwa/Documents/AVR Utils/toolchain/bin/../lib/gcc/avr/7.3.0/../../../../avr/lib/avr6/libm.a(cmpsf2.o)
 .bss           0x0000000000000000        0x0 /home/aheebwa/Documents/AVR Utils/toolchain/bin/../lib/gcc/avr/7.3.0/../../../../avr/lib/avr6/libm.a(cmpsf2.o)
 .text.avr-libc.fplib
                0x0000000000000000        0xa /home/aheebwa/Documents/AVR Utils/toolchain/bin/../lib/gcc/avr/7.3.0/../../../../avr/lib/avr6/libm.a(cmpsf2.o)
 .text          0x0000000000000000        0x0 /home/aheebwa/Documents/AVR Utils/toolchain/bin/../lib/gcc/avr/7.3.0/../../../../avr/lib/avr6/libm.a(fixunssfsi.o)
 .data          0x0000000000000000        0x0 /home/aheebwa/Documents/AVR Utils/toolchain/bin/../lib/gcc/avr/7.3.0/../../../../avr/lib/avr6/libm.a(fixunssfsi.o)
 .bss           0x0000000000000000        0x0 /home/aheebwa/Documents/AVR Utils/toolchain/bin/../lib/gcc/avr/7.3.0/../../../../avr/lib/avr6/libm.a(fixunssfsi.o)
 .text          0x0000000000000000        0x0 /home/aheebwa/Documents/AVR Utils/toolchain/bin/../lib/gcc/avr/7.3.0/../../../../avr/lib/avr6/libm.a(floatsisf.o)
 .data          0x0000000000000000        0x0 /home/aheebwa/Documents/AVR Utils/toolchain/bin/../lib/gcc/avr/7.3.0/../../../../avr/lib/avr6/libm.a(floatsisf.o)
 .bss           0x0000000000000000        0x0 /home/aheebwa/Documents/AVR Utils/toolchain/bin/../lib/gcc/avr/7.3.0/../../../../avr/lib/avr6/libm.a(floatsisf.o)
 .text          0x0000000000000000        0x0 /home/aheebwa/Documents/AVR Utils/toolchain/bin/../lib/gcc/avr/7.3.0/../../../../avr/lib/avr6/libm.a(fp_cmp.o)
 .data          0x0000000000000000        0x0 /home/aheebwa/Documents/AVR Utils/toolchain/bin/../lib/gcc/avr/7.3.0/../../../../avr/lib/avr6/libm.a(fp_cmp.o)
 .bss           0x0000000000000000        0x0 /home/aheebwa/Documents/AVR Utils/toolchain/bin/../lib/gcc/avr/7.3.0/../../../../avr/lib/avr6/libm.a(fp_cmp.o)
 .text.avr-libc.fplib
                0x0000000000000000       0x48 /home/aheebwa/Documents/AVR Utils/toolchain/bin/../lib/gcc/avr/7.3.0/../../../../avr/lib/avr6/libm.a(fp_cmp.o)
 .text          0x0000000000000000        0x0 /home/aheebwa/Documents/AVR Utils/toolchain/bin/../lib/gcc/avr/7.3.0/../../../../avr/lib/avr6/libm.a(fp_inf.o)
 .data          0x0000000000000000        0x0 /home/aheebwa/Documents/AVR Utils/toolchain/bin/../lib/gcc/avr/7.3.0/../../../../avr/lib/avr6/libm.a(fp_inf.o)
 .bss           0x0000000000000000        0x0 /home/aheebwa/Documents/AVR Utils/toolchain/bin/../lib/gcc/avr/7.3.0/../../../../avr/lib/avr6/libm.a(fp_inf.o)
 .text          0x0000000000000000        0x0 /home/aheebwa/Documents/AVR Utils/toolchain/bin/../lib/gcc/avr/7.3.0/../../../../avr/lib/avr6/libm.a(fp_nan.o)
 .data          0x0000000000000000        0x0 /home/aheebwa/Documents/AVR Utils/toolchain/bin/../lib/gcc/avr/7.3.0/../../../../avr/lib/avr6/libm.a(fp_nan.o)
 .bss           0x0000000000000000        0x0 /home/aheebwa/Documents/AVR Utils/toolchain/bin/../lib/gcc/avr/7.3.0/../../../../avr/lib/avr6/libm.a(fp_nan.o)
 .text          0x0000000000000000        0x0 /home/aheebwa/Documents/AVR Utils/toolchain/bin/../lib/gcc/avr/7.3.0/../../../../avr/lib/avr6/libm.a(fp_pscA.o)
 .data          0x0000000000000000        0x0 /home/aheebwa/Documents/AVR Utils/toolchain/bin/../lib/gcc/avr/7.3.0/../../../../avr/lib/avr6/libm.a(fp_pscA.o)
 .bss           0x0000000000000000        0x0 /home/aheebwa/Documents/AVR Utils/toolchain/bin/../lib/gcc/avr/7.3.0/../../../../avr/lib/avr6/libm.a(fp_pscA.o)
 .text          0x0000000000000000        0x0 /home/aheebwa/Documents/AVR Utils/toolchain/bin/../lib/gcc/avr/7.3.0/../../../../avr/lib/avr6/libm.a(fp_pscB.o)
 .data          0x0000000000000000        0x0 /home/aheebwa/Documents/AVR Utils/toolchain/bin/../lib/gcc/avr/7.3.0/../../../../avr/lib/avr6/libm.a(fp_pscB.o)
 .bss           0x0000000000000000        0x0 /home/aheebwa/Documents/AVR Utils/toolchain/bin/../lib/gcc/avr/7.3.0/../../../../avr/lib/avr6/libm.a(fp_pscB.o)
 .text          0x0000000000000000        0x0 /home/aheebwa/Documents/AVR Utils/toolchain/bin/../lib/gcc/avr/7.3.0/../../../../avr/lib/avr6/libm.a(fp_round.o)
 .data          0x0000000000000000        0x0 /home/aheebwa/Documents/AVR Utils/toolchain/bin/../lib/gcc/avr/7.3.0/../../../../avr/lib/avr6/libm.a(fp_round.o)
 .bss           0x0000000000000000        0x0 /home/aheebwa/Documents/AVR Utils/toolchain/bin/../lib/gcc/avr/7.3.0/../../../../avr/lib/avr6/libm.a(fp_round.o)
 .text          0x0000000000000000        0x0 /home/aheebwa/Documents/AVR Utils/toolchain/bin/../lib/gcc/avr/7.3.0/../../../../avr/lib/avr6/libm.a(fp_split3.o)
 .data          0x0000000000000000        0x0 /home/aheebwa/Documents/AVR Utils/toolchain/bin/../lib/gcc/avr/7.3.0/../../../../avr/lib/avr6/libm.a(fp_split3.o)
 .bss           0x0000000000000000        0x0 /home/aheebwa/Documents/AVR Utils/toolchain/bin/../lib/gcc/avr/7.3.0/../../../../avr/lib/avr6/libm.a(fp_split3.o)
 .text          0x0000000000000000        0x0 /home/aheebwa/Documents/AVR Utils/toolchain/bin/../lib/gcc/avr/7.3.0/../../../../avr/lib/avr6/libm.a(fp_zero.o)
 .data          0x0000000000000000        0x0 /home/aheebwa/Documents/AVR Utils/toolchain/bin/../lib/gcc/avr/7.3.0/../../../../avr/lib/avr6/libm.a(fp_zero.o)
 .bss           0x0000000000000000        0x0 /home/aheebwa/Documents/AVR Utils/toolchain/bin/../lib/gcc/avr/7.3.0/../../../../avr/lib/avr6/libm.a(fp_zero.o)
 .text          0x0000000000000000        0x0 /home/aheebwa/Documents/AVR Utils/toolchain/bin/../lib/gcc/avr/7.3.0/../../../../avr/lib/avr6/libm.a(mulsf3.o)
 .data          0x0000000000000000        0x0 /home/aheebwa/Documents/AVR Utils/toolchain/bin/../lib/gcc/avr/7.3.0/../../../../avr/lib/avr6/libm.a(mulsf3.o)
 .bss           0x0000000000000000        0x0 /home/aheebwa/Documents/AVR Utils/toolchain/bin/../lib/gcc/avr/7.3.0/../../../../avr/lib/avr6/libm.a(mulsf3.o)
 .text          0x0000000000000000        0x0 /home/aheebwa/Documents/AVR Utils/toolchain/bin/../lib/gcc/avr/7.3.0/../../../../avr/lib/avr6/libm.a(mulsf3x.o)
 .data          0x0000000000000000        0x0 /home/aheebwa/Documents/AVR Utils/toolchain/bin/../lib/gcc/avr/7.3.0/../../../../avr/lib/avr6/libm.a(mulsf3x.o)
 .bss           0x0000000000000000        0x0 /home/aheebwa/Documents/AVR Utils/toolchain/bin/../lib/gcc/avr/7.3.0/../../../../avr/lib/avr6/libm.a(mulsf3x.o)
 .text          0x0000000000000000        0x0 /home/aheebwa/Documents/AVR Utils/toolchain/bin/../lib/gcc/avr/7.3.0/avr6/libgcc.a(_divmodhi4.o)
 .data          0x0000000000000000        0x0 /home/aheebwa/Documents/AVR Utils/toolchain/bin/../lib/gcc/avr/7.3.0/avr6/libgcc.a(_divmodhi4.o)
 .bss           0x0000000000000000        0x0 /home/aheebwa/Documents/AVR Utils/toolchain/bin/../lib/gcc/avr/7.3.0/avr6/libgcc.a(_divmodhi4.o)
 .text.libgcc.mul
                0x0000000000000000        0x0 /home/aheebwa/Documents/AVR Utils/toolchain/bin/../lib/gcc/avr/7.3.0/avr6/libgcc.a(_divmodhi4.o)
 .text.libgcc.div
                0x0000000000000000       0x28 /home/aheebwa/Documents/AVR Utils/toolchain/bin/../lib/gcc/avr/7.3.0/avr6/libgcc.a(_divmodhi4.o)
 .text.libgcc   0x0000000000000000        0x0 /home/aheebwa/Documents/AVR Utils/toolchain/bin/../lib/gcc/avr/7.3.0/avr6/libgcc.a(_divmodhi4.o)
 .text.libgcc.prologue
                0x0000000000000000        0x0 /home/aheebwa/Documents/AVR Utils/toolchain/bin/../lib/gcc/avr/7.3.0/avr6/libgcc.a(_divmodhi4.o)
 .text.libgcc.builtins
                0x0000000000000000        0x0 /home/aheebwa/Documents/AVR Utils/toolchain/bin/../lib/gcc/avr/7.3.0/avr6/libgcc.a(_divmodhi4.o)
 .text.libgcc.fmul
                0x0000000000000000        0x0 /home/aheebwa/Documents/AVR Utils/toolchain/bin/../lib/gcc/avr/7.3.0/avr6/libgcc.a(_divmodhi4.o)
 .text.libgcc.fixed
                0x0000000000000000        0x0 /home/aheebwa/Documents/AVR Utils/toolchain/bin/../lib/gcc/avr/7.3.0/avr6/libgcc.a(_divmodhi4.o)
 .text          0x0000000000000000        0x0 /home/aheebwa/Documents/AVR Utils/toolchain/bin/../lib/gcc/avr/7.3.0/avr6/libgcc.a(_exit.o)
 .data          0x0000000000000000        0x0 /home/aheebwa/Documents/AVR Utils/toolchain/bin/../lib/gcc/avr/7.3.0/avr6/libgcc.a(_exit.o)
 .bss           0x0000000000000000        0x0 /home/aheebwa/Documents/AVR Utils/toolchain/bin/../lib/gcc/avr/7.3.0/avr6/libgcc.a(_exit.o)
 .text.libgcc.mul
                0x0000000000000000        0x0 /home/aheebwa/Documents/AVR Utils/toolchain/bin/../lib/gcc/avr/7.3.0/avr6/libgcc.a(_exit.o)
 .text.libgcc.div
                0x0000000000000000        0x0 /home/aheebwa/Documents/AVR Utils/toolchain/bin/../lib/gcc/avr/7.3.0/avr6/libgcc.a(_exit.o)
 .text.libgcc   0x0000000000000000        0x0 /home/aheebwa/Documents/AVR Utils/toolchain/bin/../lib/gcc/avr/7.3.0/avr6/libgcc.a(_exit.o)
 .text.libgcc.prologue
                0x0000000000000000        0x0 /home/aheebwa/Documents/AVR Utils/toolchain/bin/../lib/gcc/avr/7.3.0/avr6/libgcc.a(_exit.o)
 .text.libgcc.builtins
                0x0000000000000000        0x0 /home/aheebwa/Documents/AVR Utils/toolchain/bin/../lib/gcc/avr/7.3.0/avr6/libgcc.a(_exit.o)
 .text.libgcc.fmul
                0x0000000000000000        0x0 /home/aheebwa/Documents/AVR Utils/toolchain/bin/../lib/gcc/avr/7.3.0/avr6/libgcc.a(_exit.o)
 .text.libgcc.fixed
                0x0000000000000000        0x0 /home/aheebwa/Documents/AVR Utils/toolchain/bin/../lib/gcc/avr/7.3.0/avr6/libgcc.a(_exit.o)
 .text          0x0000000000000000        0x0 /home/aheebwa/Documents/AVR Utils/toolchain/bin/../lib/gcc/avr/7.3.0/avr6/libgcc.a(_copy_data.o)
 .data          0x0000000000000000        0x0 /home/aheebwa/Documents/AVR Utils/toolchain/bin/../lib/gcc/avr/7.3.0/avr6/libgcc.a(_copy_data.o)
 .bss           0x0000000000000000        0x0 /home/aheebwa/Documents/AVR Utils/toolchain/bin/../lib/gcc/avr/7.3.0/avr6/libgcc.a(_copy_data.o)
 .text.libgcc.mul
                0x0000000000000000        0x0 /home/aheebwa/Documents/AVR Utils/toolchain/bin/../lib/gcc/avr/7.3.0/avr6/libgcc.a(_copy_data.o)
 .text.libgcc.div
                0x0000000000000000        0x0 /home/aheebwa/Documents/AVR Utils/toolchain/bin/../lib/gcc/avr/7.3.0/avr6/libgcc.a(_copy_data.o)
 .text.libgcc   0x0000000000000000        0x0 /home/aheebwa/Documents/AVR Utils/toolchain/bin/../lib/gcc/avr/7.3.0/avr6/libgcc.a(_copy_data.o)
 .text.libgcc.prologue
                0x0000000000000000        0x0 /home/aheebwa/Documents/AVR Utils/toolchain/bin/../lib/gcc/avr/7.3.0/avr6/libgcc.a(_copy_data.o)
 .text.libgcc.builtins
                0x0000000000000000        0x0 /home/aheebwa/Documents/AVR Utils/toolchain/bin/../lib/gcc/avr/7.3.0/avr6/libgcc.a(_copy_data.o)
 .text.libgcc.fmul
                0x0000000000000000        0x0 /home/aheebwa/Documents/AVR Utils/toolchain/bin/../lib/gcc/avr/7.3.0/avr6/libgcc.a(_copy_data.o)
 .text.libgcc.fixed
                0x0000000000000000        0x0 /home/aheebwa/Documents/AVR Utils/toolchain/bin/../lib/gcc/avr/7.3.0/avr6/libgcc.a(_copy_data.o)
 .text          0x0000000000000000        0x0 /home/aheebwa/Documents/AVR Utils/toolchain/bin/../lib/gcc/avr/7.3.0/avr6/libgcc.a(_clear_bss.o)
 .data          0x0000000000000000        0x0 /home/aheebwa/Documents/AVR Utils/toolchain/bin/../lib/gcc/avr/7.3.0/avr6/libgcc.a(_clear_bss.o)
 .bss           0x0000000000000000        0x0 /home/aheebwa/Documents/AVR Utils/toolchain/bin/../lib/gcc/avr/7.3.0/avr6/libgcc.a(_clear_bss.o)
 .text.libgcc.mul
                0x0000000000000000        0x0 /home/aheebwa/Documents/AVR Utils/toolchain/bin/../lib/gcc/avr/7.3.0/avr6/libgcc.a(_clear_bss.o)
 .text.libgcc.div
                0x0000000000000000        0x0 /home/aheebwa/Documents/AVR Utils/toolchain/bin/../lib/gcc/avr/7.3.0/avr6/libgcc.a(_clear_bss.o)
 .text.libgcc   0x0000000000000000        0x0 /home/aheebwa/Documents/AVR Utils/toolchain/bin/../lib/gcc/avr/7.3.0/avr6/libgcc.a(_clear_bss.o)
 .text.libgcc.prologue
                0x0000000000000000        0x0 /home/aheebwa/Documents/AVR Utils/toolchain/bin/../lib/gcc/avr/7.3.0/avr6/libgcc.a(_clear_bss.o)
 .text.libgcc.builtins
                0x0000000000000000        0x0 /home/aheebwa/Documents/AVR Utils/toolchain/bin/../lib/gcc/avr/7.3.0/avr6/libgcc.a(_clear_bss.o)
 .text.libgcc.fmul
                0x0000000000000000        0x0 /home/aheebwa/Documents/AVR Utils/toolchain/bin/../lib/gcc/avr/7.3.0/avr6/libgcc.a(_clear_bss.o)
 .text.libgcc.fixed
                0x0000000000000000        0x0 /home/aheebwa/Documents/AVR Utils/toolchain/bin/../lib/gcc/avr/7.3.0/avr6/libgcc.a(_clear_bss.o)
 .text          0x0000000000000000        0x0 /home/aheebwa/Documents/AVR Utils/toolchain/bin/../lib/gcc/avr/7.3.0/avr6/libgcc.a(_udivmodhi4.o)
 .data          0x0000000000000000        0x0 /home/aheebwa/Documents/AVR Utils/toolchain/bin/../lib/gcc/avr/7.3.0/avr6/libgcc.a(_udivmodhi4.o)
 .bss           0x0000000000000000        0x0 /home/aheebwa/Documents/AVR Utils/toolchain/bin/../lib/gcc/avr/7.3.0/avr6/libgcc.a(_udivmodhi4.o)
 .text.libgcc.mul
                0x0000000000000000        0x0 /home/aheebwa/Documents/AVR Utils/toolchain/bin/../lib/gcc/avr/7.3.0/avr6/libgcc.a(_udivmodhi4.o)
 .text.libgcc.div
                0x0000000000000000       0x28 /home/aheebwa/Documents/AVR Utils/toolchain/bin/../lib/gcc/avr/7.3.0/avr6/libgcc.a(_udivmodhi4.o)
 .text.libgcc   0x0000000000000000        0x0 /home/aheebwa/Documents/AVR Utils/toolchain/bin/../lib/gcc/avr/7.3.0/avr6/libgcc.a(_udivmodhi4.o)
 .text.libgcc.prologue
                0x0000000000000000        0x0 /home/aheebwa/Documents/AVR Utils/toolchain/bin/../lib/gcc/avr/7.3.0/avr6/libgcc.a(_udivmodhi4.o)
 .text.libgcc.builtins
                0x0000000000000000        0x0 /home/aheebwa/Documents/AVR Utils/toolchain/bin/../lib/gcc/avr/7.3.0/avr6/libgcc.a(_udivmodhi4.o)
 .text.libgcc.fmul
                0x0000000000000000        0x0 /home/aheebwa/Documents/AVR Utils/toolchain/bin/../lib/gcc/avr/7.3.0/avr6/libgcc.a(_udivmodhi4.o)
 .text.libgcc.fixed
                0x0000000000000000        0x0 /home/aheebwa/Documents/AVR Utils/toolchain/bin/../lib/gcc/avr/7.3.0/avr6/libgcc.a(_udivmodhi4.o)
 .text          0x0000000000000000        0x0 /home/aheebwa/Documents/AVR Utils/toolchain/bin/../lib/gcc/avr/7.3.0/../../../../avr/lib/avr6/libc.a(rand.o)
 .data          0x0000000000000000        0x4 /home/aheebwa/Documents/AVR Utils/toolchain/bin/../lib/gcc/avr/7.3.0/../../../../avr/lib/avr6/libc.a(rand.o)
 .bss           0x0000000000000000        0x0 /home/aheebwa/Documents/AVR Utils/toolchain/bin/../lib/gcc/avr/7.3.0/../../../../avr/lib/avr6/libc.a(rand.o)
 .text.avr-libc
                0x0000000000000000       0xb4 /home/aheebwa/Documents/AVR Utils/toolchain/bin/../lib/gcc/avr/7.3.0/../../../../avr/lib/avr6/libc.a(rand.o)
 .comment       0x0000000000000000       0x2d /home/aheebwa/Documents/AVR Utils/toolchain/bin/../lib/gcc/avr/7.3.0/../../../../avr/lib/avr6/libc.a(rand.o)
 .text          0x0000000000000000        0x0 /home/aheebwa/Documents/AVR Utils/toolchain/bin/../lib/gcc/avr/7.3.0/../../../../avr/lib/avr6/libc.a(strcmp.o)
 .data          0x0000000000000000        0x0 /home/aheebwa/Documents/AVR Utils/toolchain/bin/../lib/gcc/avr/7.3.0/../../../../avr/lib/avr6/libc.a(strcmp.o)
 .bss           0x0000000000000000        0x0 /home/aheebwa/Documents/AVR Utils/toolchain/bin/../lib/gcc/avr/7.3.0/../../../../avr/lib/avr6/libc.a(strcmp.o)
 .text.avr-libc
                0x0000000000000000       0x12 /home/aheebwa/Documents/AVR Utils/toolchain/bin/../lib/gcc/avr/7.3.0/../../../../avr/lib/avr6/libc.a(strcmp.o)
 .text          0x0000000000000000        0x0 /home/aheebwa/Documents/AVR Utils/toolchain/bin/../lib/gcc/avr/7.3.0/../../../../avr/lib/avr6/libc.a(strncpy.o)
 .data          0x0000000000000000        0x0 /home/aheebwa/Documents/AVR Utils/toolchain/bin/../lib/gcc/avr/7.3.0/../../../../avr/lib/avr6/libc.a(strncpy.o)
 .bss           0x0000000000000000        0x0 /home/aheebwa/Documents/AVR Utils/toolchain/bin/../lib/gcc/avr/7.3.0/../../../../avr/lib/avr6/libc.a(strncpy.o)
 .text          0x0000000000000000        0x0 /home/aheebwa/Documents/AVR Utils/toolchain/bin/../lib/gcc/avr/7.3.0/../../../../avr/lib/avr6/libc.a(itoa_ncheck.o)
 .data          0x0000000000000000        0x0 /home/aheebwa/Documents/AVR Utils/toolchain/bin/../lib/gcc/avr/7.3.0/../../../../avr/lib/avr6/libc.a(itoa_ncheck.o)
 .bss           0x0000000000000000        0x0 /home/aheebwa/Documents/AVR Utils/toolchain/bin/../lib/gcc/avr/7.3.0/../../../../avr/lib/avr6/libc.a(itoa_ncheck.o)
 .text          0x0000000000000000        0x0 /home/aheebwa/Documents/AVR Utils/toolchain/bin/../lib/gcc/avr/7.3.0/../../../../avr/lib/avr6/libc.a(utoa_ncheck.o)
 .data          0x0000000000000000        0x0 /home/aheebwa/Documents/AVR Utils/toolchain/bin/../lib/gcc/avr/7.3.0/../../../../avr/lib/avr6/libc.a(utoa_ncheck.o)
 .bss           0x0000000000000000        0x0 /home/aheebwa/Documents/AVR Utils/toolchain/bin/../lib/gcc/avr/7.3.0/../../../../avr/lib/avr6/libc.a(utoa_ncheck.o)
 .text          0x0000000000000000       0x26 /home/aheebwa/Documents/AVR Utils/toolchain/bin/../lib/gcc/avr/7.3.0/../../../../avr/lib/avr6/libc.a(time.o)
 .data          0x0000000000000000        0x0 /home/aheebwa/Documents/AVR Utils/toolchain/bin/../lib/gcc/avr/7.3.0/../../../../avr/lib/avr6/libc.a(time.o)
 .bss           0x0000000000000000        0x0 /home/aheebwa/Documents/AVR Utils/toolchain/bin/../lib/gcc/avr/7.3.0/../../../../avr/lib/avr6/libc.a(time.o)
 .comment       0x0000000000000000       0x2d /home/aheebwa/Documents/AVR Utils/toolchain/bin/../lib/gcc/avr/7.3.0/../../../../avr/lib/avr6/libc.a(time.o)
 .text          0x0000000000000000        0x0 /home/aheebwa/Documents/AVR Utils/toolchain/bin/../lib/gcc/avr/7.3.0/../../../../avr/lib/avr6/libc.a(strrev.o)
 .data          0x0000000000000000        0x0 /home/aheebwa/Documents/AVR Utils/toolchain/bin/../lib/gcc/avr/7.3.0/../../../../avr/lib/avr6/libc.a(strrev.o)
 .bss           0x0000000000000000        0x0 /home/aheebwa/Documents/AVR Utils/toolchain/bin/../lib/gcc/avr/7.3.0/../../../../avr/lib/avr6/libc.a(strrev.o)
 .text          0x0000000000000000        0x0 /home/aheebwa/Documents/AVR Utils/toolchain/bin/../lib/gcc/avr/7.3.0/../../../../avr/lib/avr6/libc.a(system_time.o)
 .data          0x0000000000000000        0x0 /home/aheebwa/Documents/AVR Utils/toolchain/bin/../lib/gcc/avr/7.3.0/../../../../avr/lib/avr6/libc.a(system_time.o)
 .bss           0x0000000000000000        0x0 /home/aheebwa/Documents/AVR Utils/toolchain/bin/../lib/gcc/avr/7.3.0/../../../../avr/lib/avr6/libc.a(system_time.o)
 .comment       0x0000000000000000       0x2d /home/aheebwa/Documents/AVR Utils/toolchain/bin/../lib/gcc/avr/7.3.0/../../../../avr/lib/avr6/libc.a(system_time.o)
 COMMON         0x0000000000000000        0x4 /home/aheebwa/Documents/AVR Utils/toolchain/bin/../lib/gcc/avr/7.3.0/../../../../avr/lib/avr6/libc.a(system_time.o)
 .text          0x0000000000000000        0x0 /home/aheebwa/Documents/AVR Utils/toolchain/bin/../lib/gcc/avr/7.3.0/avr6/libgcc.a(_divmodsi4.o)
 .data          0x0000000000000000        0x0 /home/aheebwa/Documents/AVR Utils/toolchain/bin/../lib/gcc/avr/7.3.0/avr6/libgcc.a(_divmodsi4.o)
 .bss           0x0000000000000000        0x0 /home/aheebwa/Documents/AVR Utils/toolchain/bin/../lib/gcc/avr/7.3.0/avr6/libgcc.a(_divmodsi4.o)
 .text.libgcc.mul
                0x0000000000000000        0x0 /home/aheebwa/Documents/AVR Utils/toolchain/bin/../lib/gcc/avr/7.3.0/avr6/libgcc.a(_divmodsi4.o)
 .text.libgcc.div
                0x0000000000000000       0x2e /home/aheebwa/Documents/AVR Utils/toolchain/bin/../lib/gcc/avr/7.3.0/avr6/libgcc.a(_divmodsi4.o)
 .text.libgcc   0x0000000000000000        0x0 /home/aheebwa/Documents/AVR Utils/toolchain/bin/../lib/gcc/avr/7.3.0/avr6/libgcc.a(_divmodsi4.o)
 .text.libgcc.prologue
                0x0000000000000000        0x0 /home/aheebwa/Documents/AVR Utils/toolchain/bin/../lib/gcc/avr/7.3.0/avr6/libgcc.a(_divmodsi4.o)
 .text.libgcc.builtins
                0x0000000000000000        0x0 /home/aheebwa/Documents/AVR Utils/toolchain/bin/../lib/gcc/avr/7.3.0/avr6/libgcc.a(_divmodsi4.o)
 .text.libgcc.fmul
                0x0000000000000000        0x0 /home/aheebwa/Documents/AVR Utils/toolchain/bin/../lib/gcc/avr/7.3.0/avr6/libgcc.a(_divmodsi4.o)
 .text.libgcc.fixed
                0x0000000000000000        0x0 /home/aheebwa/Documents/AVR Utils/toolchain/bin/../lib/gcc/avr/7.3.0/avr6/libgcc.a(_divmodsi4.o)
 .text          0x0000000000000000        0x0 /home/aheebwa/Documents/AVR Utils/toolchain/bin/../lib/gcc/avr/7.3.0/avr6/libgcc.a(_negsi2.o)
 .data          0x0000000000000000        0x0 /home/aheebwa/Documents/AVR Utils/toolchain/bin/../lib/gcc/avr/7.3.0/avr6/libgcc.a(_negsi2.o)
 .bss           0x0000000000000000        0x0 /home/aheebwa/Documents/AVR Utils/toolchain/bin/../lib/gcc/avr/7.3.0/avr6/libgcc.a(_negsi2.o)
 .text.libgcc.mul
                0x0000000000000000        0x0 /home/aheebwa/Documents/AVR Utils/toolchain/bin/../lib/gcc/avr/7.3.0/avr6/libgcc.a(_negsi2.o)
 .text.libgcc.div
                0x0000000000000000       0x10 /home/aheebwa/Documents/AVR Utils/toolchain/bin/../lib/gcc/avr/7.3.0/avr6/libgcc.a(_negsi2.o)
 .text.libgcc   0x0000000000000000        0x0 /home/aheebwa/Documents/AVR Utils/toolchain/bin/../lib/gcc/avr/7.3.0/avr6/libgcc.a(_negsi2.o)
 .text.libgcc.prologue
                0x0000000000000000        0x0 /home/aheebwa/Documents/AVR Utils/toolchain/bin/../lib/gcc/avr/7.3.0/avr6/libgcc.a(_negsi2.o)
 .text.libgcc.builtins
                0x0000000000000000        0x0 /home/aheebwa/Documents/AVR Utils/toolchain/bin/../lib/gcc/avr/7.3.0/avr6/libgcc.a(_negsi2.o)
 .text.libgcc.fmul
                0x0000000000000000        0x0 /home/aheebwa/Documents/AVR Utils/toolchain/bin/../lib/gcc/avr/7.3.0/avr6/libgcc.a(_negsi2.o)
 .text.libgcc.fixed
                0x0000000000000000        0x0 /home/aheebwa/Documents/AVR Utils/toolchain/bin/../lib/gcc/avr/7.3.0/avr6/libgcc.a(_negsi2.o)
 .text          0x0000000000000000        0x0 /home/aheebwa/Documents/AVR Utils/toolchain/bin/../lib/gcc/avr/7.3.0/avr6/libgcc.a(_muluhisi3.o)
 .data          0x0000000000000000        0x0 /home/aheebwa/Documents/AVR Utils/toolchain/bin/../lib/gcc/avr/7.3.0/avr6/libgcc.a(_muluhisi3.o)
 .bss           0x0000000000000000        0x0 /home/aheebwa/Documents/AVR Utils/toolchain/bin/../lib/gcc/avr/7.3.0/avr6/libgcc.a(_muluhisi3.o)
 .text.libgcc.mul
                0x0000000000000000       0x16 /home/aheebwa/Documents/AVR Utils/toolchain/bin/../lib/gcc/avr/7.3.0/avr6/libgcc.a(_muluhisi3.o)
 .text.libgcc.div
                0x0000000000000000        0x0 /home/aheebwa/Documents/AVR Utils/toolchain/bin/../lib/gcc/avr/7.3.0/avr6/libgcc.a(_muluhisi3.o)
 .text.libgcc   0x0000000000000000        0x0 /home/aheebwa/Documents/AVR Utils/toolchain/bin/../lib/gcc/avr/7.3.0/avr6/libgcc.a(_muluhisi3.o)
 .text.libgcc.prologue
                0x0000000000000000        0x0 /home/aheebwa/Documents/AVR Utils/toolchain/bin/../lib/gcc/avr/7.3.0/avr6/libgcc.a(_muluhisi3.o)
 .text.libgcc.builtins
                0x0000000000000000        0x0 /home/aheebwa/Documents/AVR Utils/toolchain/bin/../lib/gcc/avr/7.3.0/avr6/libgcc.a(_muluhisi3.o)
 .text.libgcc.fmul
                0x0000000000000000        0x0 /home/aheebwa/Documents/AVR Utils/toolchain/bin/../lib/gcc/avr/7.3.0/avr6/libgcc.a(_muluhisi3.o)
 .text.libgcc.fixed
                0x0000000000000000        0x0 /home/aheebwa/Documents/AVR Utils/toolchain/bin/../lib/gcc/avr/7.3.0/avr6/libgcc.a(_muluhisi3.o)
 .text          0x0000000000000000        0x0 /home/aheebwa/Documents/AVR Utils/toolchain/bin/../lib/gcc/avr/7.3.0/avr6/libgcc.a(_mulshisi3.o)
 .data          0x0000000000000000        0x0 /home/aheebwa/Documents/AVR Utils/toolchain/bin/../lib/gcc/avr/7.3.0/avr6/libgcc.a(_mulshisi3.o)
 .bss           0x0000000000000000        0x0 /home/aheebwa/Documents/AVR Utils/toolchain/bin/../lib/gcc/avr/7.3.0/avr6/libgcc.a(_mulshisi3.o)
 .text.libgcc.mul
                0x0000000000000000       0x10 /home/aheebwa/Documents/AVR Utils/toolchain/bin/../lib/gcc/avr/7.3.0/avr6/libgcc.a(_mulshisi3.o)
 .text.libgcc.div
                0x0000000000000000        0x0 /home/aheebwa/Documents/AVR Utils/toolchain/bin/../lib/gcc/avr/7.3.0/avr6/libgcc.a(_mulshisi3.o)
 .text.libgcc   0x0000000000000000        0x0 /home/aheebwa/Documents/AVR Utils/toolchain/bin/../lib/gcc/avr/7.3.0/avr6/libgcc.a(_mulshisi3.o)
 .text.libgcc.prologue
                0x0000000000000000        0x0 /home/aheebwa/Documents/AVR Utils/toolchain/bin/../lib/gcc/avr/7.3.0/avr6/libgcc.a(_mulshisi3.o)
 .text.libgcc.builtins
                0x0000000000000000        0x0 /home/aheebwa/Documents/AVR Utils/toolchain/bin/../lib/gcc/avr/7.3.0/avr6/libgcc.a(_mulshisi3.o)
 .text.libgcc.fmul
                0x0000000000000000        0x0 /home/aheebwa/Documents/AVR Utils/toolchain/bin/../lib/gcc/avr/7.3.0/avr6/libgcc.a(_mulshisi3.o)
 .text.libgcc.fixed
                0x0000000000000000        0x0 /home/aheebwa/Documents/AVR Utils/toolchain/bin/../lib/gcc/avr/7.3.0/avr6/libgcc.a(_mulshisi3.o)
 .text          0x0000000000000000        0x0 /home/aheebwa/Documents/AVR Utils/toolchain/bin/../lib/gcc/avr/7.3.0/avr6/libgcc.a(_udivmodsi4.o)
 .data          0x0000000000000000        0x0 /home/aheebwa/Documents/AVR Utils/toolchain/bin/../lib/gcc/avr/7.3.0/avr6/libgcc.a(_udivmodsi4.o)
 .bss           0x0000000000000000        0x0 /home/aheebwa/Documents/AVR Utils/toolchain/bin/../lib/gcc/avr/7.3.0/avr6/libgcc.a(_udivmodsi4.o)
 .text.libgcc.mul
                0x0000000000000000        0x0 /home/aheebwa/Documents/AVR Utils/toolchain/bin/../lib/gcc/avr/7.3.0/avr6/libgcc.a(_udivmodsi4.o)
 .text.libgcc.div
                0x0000000000000000       0x44 /home/aheebwa/Documents/AVR Utils/toolchain/bin/../lib/gcc/avr/7.3.0/avr6/libgcc.a(_udivmodsi4.o)
 .text.libgcc   0x0000000000000000        0x0 /home/aheebwa/Documents/AVR Utils/toolchain/bin/../lib/gcc/avr/7.3.0/avr6/libgcc.a(_udivmodsi4.o)
 .text.libgcc.prologue
                0x0000000000000000        0x0 /home/aheebwa/Documents/AVR Utils/toolchain/bin/../lib/gcc/avr/7.3.0/avr6/libgcc.a(_udivmodsi4.o)
 .text.libgcc.builtins
                0x0000000000000000        0x0 /home/aheebwa/Documents/AVR Utils/toolchain/bin/../lib/gcc/avr/7.3.0/avr6/libgcc.a(_udivmodsi4.o)
 .text.libgcc.fmul
                0x0000000000000000        0x0 /home/aheebwa/Documents/AVR Utils/toolchain/bin/../lib/gcc/avr/7.3.0/avr6/libgcc.a(_udivmodsi4.o)
 .text.libgcc.fixed
                0x0000000000000000        0x0 /home/aheebwa/Documents/AVR Utils/toolchain/bin/../lib/gcc/avr/7.3.0/avr6/libgcc.a(_udivmodsi4.o)
 .text          0x0000000000000000        0x0 /home/aheebwa/Documents/AVR Utils/toolchain/bin/../lib/gcc/avr/7.3.0/avr6/libgcc.a(_umulhisi3.o)
 .data          0x0000000000000000        0x0 /home/aheebwa/Documents/AVR Utils/toolchain/bin/../lib/gcc/avr/7.3.0/avr6/libgcc.a(_umulhisi3.o)
 .bss           0x0000000000000000        0x0 /home/aheebwa/Documents/AVR Utils/toolchain/bin/../lib/gcc/avr/7.3.0/avr6/libgcc.a(_umulhisi3.o)
 .text.libgcc.mul
                0x0000000000000000       0x1e /home/aheebwa/Documents/AVR Utils/toolchain/bin/../lib/gcc/avr/7.3.0/avr6/libgcc.a(_umulhisi3.o)
 .text.libgcc.div
                0x0000000000000000        0x0 /home/aheebwa/Documents/AVR Utils/toolchain/bin/../lib/gcc/avr/7.3.0/avr6/libgcc.a(_umulhisi3.o)
 .text.libgcc   0x0000000000000000        0x0 /home/aheebwa/Documents/AVR Utils/toolchain/bin/../lib/gcc/avr/7.3.0/avr6/libgcc.a(_umulhisi3.o)
 .text.libgcc.prologue
                0x0000000000000000        0x0 /home/aheebwa/Documents/AVR Utils/toolchain/bin/../lib/gcc/avr/7.3.0/avr6/libgcc.a(_umulhisi3.o)
 .text.libgcc.builtins
                0x0000000000000000        0x0 /home/aheebwa/Documents/AVR Utils/toolchain/bin/../lib/gcc/avr/7.3.0/avr6/libgcc.a(_umulhisi3.o)
 .text.libgcc.fmul
                0x0000000000000000        0x0 /home/aheebwa/Documents/AVR Utils/toolchain/bin/../lib/gcc/avr/7.3.0/avr6/libgcc.a(_umulhisi3.o)
 .text.libgcc.fixed
                0x0000000000000000        0x0 /home/aheebwa/Documents/AVR Utils/toolchain/bin/../lib/gcc/avr/7.3.0/avr6/libgcc.a(_umulhisi3.o)

Memory Configuration

Name             Origin             Length             Attributes
text             0x0000000000000000 0x0000000000040000 xr
data             0x0000000000800200 0x0000000000002000 rw !x
eeprom           0x0000000000810000 0x0000000000001000 rw !x
fuse             0x0000000000820000 0x0000000000000003 rw !x
lock             0x0000000000830000 0x0000000000000400 rw !x
signature        0x0000000000840000 0x0000000000000400 rw !x
user_signatures  0x0000000000850000 0x0000000000000400 rw !x
*default*        0x0000000000000000 0xffffffffffffffff

Linker script and memory map

Address of section .data set to 0x800200
LOAD /Home/microchip/mplabx/v6.20/packs/Microchip/ATmega_DFP/3.1.264/gcc/dev/atmega2560/avr6/crtatmega2560.o
LOAD build/default/debug/main.o
                0x0000000000000001                __MPLAB_BUILD = 0x1
                0x0000000000000001                __MPLAB_DEBUG = 0x1
                0x0000000000000001                __DEBUG = 0x1
                0x0000000000000001                __MPLAB_DEBUGGER_SIMULATOR = 0x1
START GROUP
LOAD /home/aheebwa/Documents/AVR Utils/toolchain/bin/../lib/gcc/avr/7.3.0/../../../../avr/lib/avr6/libm.a
END GROUP
START GROUP
LOAD /home/aheebwa/Documents/AVR Utils/toolchain/bin/../lib/gcc/avr/7.3.0/avr6/libgcc.a
LOAD /home/aheebwa/Documents/AVR Utils/toolchain/bin/../lib/gcc/avr/7.3.0/../../../../avr/lib/avr6/libm.a
LOAD /home/aheebwa/Documents/AVR Utils/toolchain/bin/../lib/gcc/avr/7.3.0/../../../../avr/lib/avr6/libc.a
LOAD /Home/microchip/mplabx/v6.20/packs/Microchip/ATmega_DFP/3.1.264/gcc/dev/atmega2560/avr6/libatmega2560.a
END GROUP
                0x0000000000000000                __TEXT_REGION_ORIGIN__ = DEFINED (__TEXT_REGION_ORIGIN__)?__TEXT_REGION_ORIGIN__:0x0
                [0x0000000000800200]                __DATA_REGION_ORIGIN__ = DEFINED (__DATA_REGION_ORIGIN__)?__DATA_REGION_ORIGIN__:0x800200
                [0x0000000000040000]                __TEXT_REGION_LENGTH__ = DEFINED (__TEXT_REGION_LENGTH__)?__TEXT_REGION_LENGTH__:0x100000
                [0x0000000000002000]                __DATA_REGION_LENGTH__ = DEFINED (__DATA_REGION_LENGTH__)?__DATA_REGION_LENGTH__:0xfe00
                [0x0000000000001000]                __EEPROM_REGION_LENGTH__ = DEFINED (__EEPROM_REGION_LENGTH__)?__EEPROM_REGION_LENGTH__:0x10000
                [0x0000000000000003]                __FUSE_REGION_LENGTH__ = DEFINED (__FUSE_REGION_LENGTH__)?__FUSE_REGION_LENGTH__:0x400
                0x0000000000000400                __LOCK_REGION_LENGTH__ = DEFINED (__LOCK_REGION_LENGTH__)?__LOCK_REGION_LENGTH__:0x400
                0x0000000000000400                __SIGNATURE_REGION_LENGTH__ = DEFINED (__SIGNATURE_REGION_LENGTH__)?__SIGNATURE_REGION_LENGTH__:0x400
                0x0000000000000400                __USER_SIGNATURE_REGION_LENGTH__ = DEFINED (__USER_SIGNATURE_REGION_LENGTH__)?__USER_SIGNATURE_REGION_LENGTH__:0x400

.hash
 *(.hash)

.dynsym
 *(.dynsym)

.dynstr
 *(.dynstr)

.gnu.version
 *(.gnu.version)

.gnu.version_d
 *(.gnu.version_d)

.gnu.version_r
 *(.gnu.version_r)

.rel.init
 *(.rel.init)

.rela.init
 *(.rela.init)

.rel.text
 *(.rel.text)
 *(.rel.text.*)
 *(.rel.gnu.linkonce.t*)

.rela.text
 *(.rela.text)
 *(.rela.text.*)
 *(.rela.gnu.linkonce.t*)

.rel.fini
 *(.rel.fini)

.rela.fini
 *(.rela.fini)

.rel.rodata
 *(.rel.rodata)
 *(.rel.rodata.*)
 *(.rel.gnu.linkonce.r*)

.rela.rodata
 *(.rela.rodata)
 *(.rela.rodata.*)
 *(.rela.gnu.linkonce.r*)

.rel.data
 *(.rel.data)
 *(.rel.data.*)
 *(.rel.gnu.linkonce.d*)

.rela.data
 *(.rela.data)
 *(.rela.data.*)
 *(.rela.gnu.linkonce.d*)

.rel.ctors
 *(.rel.ctors)

.rela.ctors
 *(.rela.ctors)

.rel.dtors
 *(.rel.dtors)

.rela.dtors
 *(.rela.dtors)

.rel.got
 *(.rel.got)

.rela.got
 *(.rela.got)

.rel.bss
 *(.rel.bss)

.rela.bss
 *(.rela.bss)

.rel.plt
 *(.rel.plt)

.rela.plt
 *(.rela.plt)

.text           0x0000000000000000      0xbda
 *(.vectors)
 .vectors       0x0000000000000000       0xe4 /Home/microchip/mplabx/v6.20/packs/Microchip/ATmega_DFP/3.1.264/gcc/dev/atmega2560/avr6/crtatmega2560.o
                0x0000000000000000                __vectors
                0x0000000000000000                __vector_default
 *(.vectors)
 *(.progmem.gcc*)
                0x00000000000000e4                . = ALIGN (0x2)
                0x00000000000000e4                __trampolines_start = .
 *(.trampolines)
 .trampolines   0x00000000000000e4        0x0 linker stubs
 *(.trampolines*)
                0x00000000000000e4                __trampolines_end = .
 *libprintf_flt.a:*(.progmem.data)
 *libc.a:*(.progmem.data)
 *(.progmem*)
                0x00000000000000e4                . = ALIGN (0x2)
 *(.jumptables)
 *(.jumptables*)
 *(.lowtext)
 *(.lowtext*)
                0x00000000000000e4                __ctors_start = .
 *(.ctors)
                0x00000000000000e4                __ctors_end = .
                0x00000000000000e4                __dtors_start = .
 *(.dtors)
                0x00000000000000e4                __dtors_end = .
 SORT(*)(.ctors)
 SORT(*)(.dtors)
 *(.init0)
 .init0         0x00000000000000e4        0x0 /Home/microchip/mplabx/v6.20/packs/Microchip/ATmega_DFP/3.1.264/gcc/dev/atmega2560/avr6/crtatmega2560.o
                0x00000000000000e4                __init
 *(.init0)
 *(.init1)
 *(.init1)
 *(.init2)
 .init2         0x00000000000000e4       0x10 /Home/microchip/mplabx/v6.20/packs/Microchip/ATmega_DFP/3.1.264/gcc/dev/atmega2560/avr6/crtatmega2560.o
 *(.init2)
 *(.init3)
 *(.init3)
 *(.init4)
 .init4         0x00000000000000f4       0x1a /home/aheebwa/Documents/AVR Utils/toolchain/bin/../lib/gcc/avr/7.3.0/avr6/libgcc.a(_copy_data.o)
                0x00000000000000f4                __do_copy_data
 .init4         0x000000000000010e       0x10 /home/aheebwa/Documents/AVR Utils/toolchain/bin/../lib/gcc/avr/7.3.0/avr6/libgcc.a(_clear_bss.o)
                0x000000000000010e                __do_clear_bss
 *(.init4)
 *(.init5)
 *(.init5)
 *(.init6)
 *(.init6)
 *(.init7)
 *(.init7)
 *(.init8)
 *(.init8)
 *(.init9)
 .init9         0x000000000000011e        0x8 /Home/microchip/mplabx/v6.20/packs/Microchip/ATmega_DFP/3.1.264/gcc/dev/atmega2560/avr6/crtatmega2560.o
 *(.init9)
 *(.text)
 .text          0x0000000000000126        0x4 /Home/microchip/mplabx/v6.20/packs/Microchip/ATmega_DFP/3.1.264/gcc/dev/atmega2560/avr6/crtatmega2560.o
                0x0000000000000126                __vector_38
                0x0000000000000126                __vector_22
                0x0000000000000126                __vector_28
                0x0000000000000126                __vector_1
                0x0000000000000126                __vector_32
                0x0000000000000126                __vector_34
                0x0000000000000126                __vector_24
                0x0000000000000126                __vector_12
                0x0000000000000126                __vector_55
                0x0000000000000126                __vector_46
                0x0000000000000126                __bad_interrupt
                0x0000000000000126                __vector_6
                0x0000000000000126                __vector_31
                0x0000000000000126                __vector_35
                0x0000000000000126                __vector_39
                0x0000000000000126                __vector_3
                0x0000000000000126                __vector_23
                0x0000000000000126                __vector_30
                0x0000000000000126                __vector_45
                0x0000000000000126                __vector_11
                0x0000000000000126                __vector_54
                0x0000000000000126                __vector_13
                0x0000000000000126                __vector_17
                0x0000000000000126                __vector_19
                0x0000000000000126                __vector_56
                0x0000000000000126                __vector_7
                0x0000000000000126                __vector_49
                0x0000000000000126                __vector_41
                0x0000000000000126                __vector_43
                0x0000000000000126                __vector_27
                0x0000000000000126                __vector_5
                0x0000000000000126                __vector_33
                0x0000000000000126                __vector_47
                0x0000000000000126                __vector_52
                0x0000000000000126                __vector_37
                0x0000000000000126                __vector_4
                0x0000000000000126                __vector_44
                0x0000000000000126                __vector_51
                0x0000000000000126                __vector_9
                0x0000000000000126                __vector_2
                0x0000000000000126                __vector_21
                0x0000000000000126                __vector_15
                0x0000000000000126                __vector_36
                0x0000000000000126                __vector_29
                0x0000000000000126                __vector_40
                0x0000000000000126                __vector_8
                0x0000000000000126                __vector_26
                0x0000000000000126                __vector_48
                0x0000000000000126                __vector_14
                0x0000000000000126                __vector_53
                0x0000000000000126                __vector_10
                0x0000000000000126                __vector_50
                0x0000000000000126                __vector_16
                0x0000000000000126                __vector_18
                0x0000000000000126                __vector_20
                0x0000000000000126                __vector_42
                0x000000000000012a                . = ALIGN (0x2)
 *(.text.*)
 .text.uart_init
                0x000000000000012a       0x18 build/default/debug/main.o
                0x000000000000012a                uart_init
 .text.uart_receive
                0x0000000000000142       0x10 build/default/debug/main.o
                0x0000000000000142                uart_receive
 .text.stall    0x0000000000000152       0x2a build/default/debug/main.o
                0x0000000000000152                stall
 .text.lcd_send_command
                0x000000000000017c       0x1a build/default/debug/main.o
                0x000000000000017c                lcd_send_command
 .text.lcd_send_data
                0x0000000000000196       0x1a build/default/debug/main.o
                0x0000000000000196                lcd_send_data
 .text.lcd_clear
                0x00000000000001b0        0x8 build/default/debug/main.o
                0x00000000000001b0                lcd_clear
 .text.lcd_print
                0x00000000000001b8       0x1e build/default/debug/main.o
                0x00000000000001b8                lcd_print
 .text.lcd_init
                0x00000000000001d6       0x42 build/default/debug/main.o
                0x00000000000001d6                lcd_init
 .text.lcd_display_number
                0x0000000000000218       0x54 build/default/debug/main.o
                0x0000000000000218                lcd_display_number
 .text.system_init
                0x000000000000026c       0xfa build/default/debug/main.o
                0x000000000000026c                system_init
 .text.add_tenant
                0x0000000000000366      0x28a build/default/debug/main.o
                0x0000000000000366                add_tenant
 .text.process_entrance_sensor
                0x00000000000005f0       0x44 build/default/debug/main.o
                0x00000000000005f0                process_entrance_sensor
 .text.process_exit_sensor
                0x0000000000000634       0x3a build/default/debug/main.o
                0x0000000000000634                process_exit_sensor
 .text.escalator_control
                0x000000000000066e       0x1c build/default/debug/main.o
                0x000000000000066e                escalator_control
 .text.show_number_Of_tenants
                0x000000000000068a       0x3c build/default/debug/main.o
                0x000000000000068a                show_number_Of_tenants
 .text.handle_bluetooth_command
                0x00000000000006c6       0xc2 build/default/debug/main.o
                0x00000000000006c6                handle_bluetooth_command
 .text.main     0x0000000000000788       0x44 build/default/debug/main.o
                0x0000000000000788                main
 .text.__vector_25
                0x00000000000007cc       0x54 build/default/debug/main.o
                0x00000000000007cc                __vector_25
 .text.avr-libc.fplib
                0x0000000000000820        0xe /home/aheebwa/Documents/AVR Utils/toolchain/bin/../lib/gcc/avr/7.3.0/../../../../avr/lib/avr6/libm.a(addsf3.o)
                0x0000000000000820                __subsf3
                0x0000000000000822                __addsf3
 .text.avr-libc.fplib
                0x000000000000082e       0xcc /home/aheebwa/Documents/AVR Utils/toolchain/bin/../lib/gcc/avr/7.3.0/../../../../avr/lib/avr6/libm.a(addsf3x.o)
                0x0000000000000850                __addsf3x
 .text.avr-libc.fplib
                0x00000000000008fa       0x5e /home/aheebwa/Documents/AVR Utils/toolchain/bin/../lib/gcc/avr/7.3.0/../../../../avr/lib/avr6/libm.a(fixunssfsi.o)
                0x00000000000008fa                __fixunssfsi
 .text.avr-libc.fplib
                0x0000000000000958       0x7a /home/aheebwa/Documents/AVR Utils/toolchain/bin/../lib/gcc/avr/7.3.0/../../../../avr/lib/avr6/libm.a(floatsisf.o)
                0x0000000000000958                __floatunsisf
                0x000000000000095c                __floatsisf
 .text.avr-libc.fplib
                0x00000000000009d2        0xc /home/aheebwa/Documents/AVR Utils/toolchain/bin/../lib/gcc/avr/7.3.0/../../../../avr/lib/avr6/libm.a(fp_inf.o)
                0x00000000000009d2                __fp_inf
 .text.avr-libc.fplib
                0x00000000000009de        0x6 /home/aheebwa/Documents/AVR Utils/toolchain/bin/../lib/gcc/avr/7.3.0/../../../../avr/lib/avr6/libm.a(fp_nan.o)
                0x00000000000009de                __fp_nan
 .text.avr-libc.fplib
                0x00000000000009e4        0xe /home/aheebwa/Documents/AVR Utils/toolchain/bin/../lib/gcc/avr/7.3.0/../../../../avr/lib/avr6/libm.a(fp_pscA.o)
                0x00000000000009e4                __fp_pscA
 .text.avr-libc.fplib
                0x00000000000009f2        0xe /home/aheebwa/Documents/AVR Utils/toolchain/bin/../lib/gcc/avr/7.3.0/../../../../avr/lib/avr6/libm.a(fp_pscB.o)
                0x00000000000009f2                __fp_pscB
 .text.avr-libc.fplib
                0x0000000000000a00       0x22 /home/aheebwa/Documents/AVR Utils/toolchain/bin/../lib/gcc/avr/7.3.0/../../../../avr/lib/avr6/libm.a(fp_round.o)
                0x0000000000000a00                __fp_round
 .text.avr-libc.fplib
                0x0000000000000a22       0x44 /home/aheebwa/Documents/AVR Utils/toolchain/bin/../lib/gcc/avr/7.3.0/../../../../avr/lib/avr6/libm.a(fp_split3.o)
                0x0000000000000a22                __fp_split3
                0x0000000000000a32                __fp_splitA
 .text.avr-libc.fplib
                0x0000000000000a66        0xe /home/aheebwa/Documents/AVR Utils/toolchain/bin/../lib/gcc/avr/7.3.0/../../../../avr/lib/avr6/libm.a(fp_zero.o)
                0x0000000000000a66                __fp_zero
                0x0000000000000a68                __fp_szero
 .text.avr-libc.fplib
                0x0000000000000a74        0x8 /home/aheebwa/Documents/AVR Utils/toolchain/bin/../lib/gcc/avr/7.3.0/../../../../avr/lib/avr6/libm.a(mulsf3.o)
                0x0000000000000a74                __mulsf3
 .text.avr-libc.fplib
                0x0000000000000a7c       0xd2 /home/aheebwa/Documents/AVR Utils/toolchain/bin/../lib/gcc/avr/7.3.0/../../../../avr/lib/avr6/libm.a(mulsf3x.o)
                0x0000000000000a9a                __mulsf3x
                0x0000000000000aa0                __mulsf3_pse
 .text.avr-libc
                0x0000000000000b4e       0x1e /home/aheebwa/Documents/AVR Utils/toolchain/bin/../lib/gcc/avr/7.3.0/../../../../avr/lib/avr6/libc.a(strncpy.o)
                0x0000000000000b4e                strncpy
 .text.avr-libc
                0x0000000000000b6c       0x16 /home/aheebwa/Documents/AVR Utils/toolchain/bin/../lib/gcc/avr/7.3.0/../../../../avr/lib/avr6/libc.a(itoa_ncheck.o)
                0x0000000000000b6c                __itoa_ncheck
 .text.avr-libc
                0x0000000000000b82       0x34 /home/aheebwa/Documents/AVR Utils/toolchain/bin/../lib/gcc/avr/7.3.0/../../../../avr/lib/avr6/libc.a(utoa_ncheck.o)
                0x0000000000000b82                __utoa_ncheck
                0x0000000000000b84                __utoa_common
 .text.avr-libc
                0x0000000000000bb6       0x20 /home/aheebwa/Documents/AVR Utils/toolchain/bin/../lib/gcc/avr/7.3.0/../../../../avr/lib/avr6/libc.a(strrev.o)
                0x0000000000000bb6                strrev
                0x0000000000000bd6                . = ALIGN (0x2)
 *(.fini9)
 .fini9         0x0000000000000bd6        0x0 /home/aheebwa/Documents/AVR Utils/toolchain/bin/../lib/gcc/avr/7.3.0/avr6/libgcc.a(_exit.o)
                0x0000000000000bd6                exit
                0x0000000000000bd6                _exit
 *(.fini9)
 *(.fini8)
 *(.fini8)
 *(.fini7)
 *(.fini7)
 *(.fini6)
 *(.fini6)
 *(.fini5)
 *(.fini5)
 *(.fini4)
 *(.fini4)
 *(.fini3)
 *(.fini3)
 *(.fini2)
 *(.fini2)
 *(.fini1)
 *(.fini1)
 *(.fini0)
 .fini0         0x0000000000000bd6        0x4 /home/aheebwa/Documents/AVR Utils/toolchain/bin/../lib/gcc/avr/7.3.0/avr6/libgcc.a(_exit.o)
 *(.fini0)
                0x0000000000000bda                _etext = .

.data           0x0000000000800200       0xd6 load address 0x0000000000000bda
                0x0000000000800200                PROVIDE (__data_start, .)
 *(.data)
 *(.data*)
 .data.base_rent
                0x0000000000800200        0x4 build/default/debug/main.o
                0x0000000000800200                base_rent
 *(.gnu.linkonce.d*)
 *(.rodata)
 *(.rodata*)
 .rodata.lcd_init.str1.1
                0x0000000000800204        0xd build/default/debug/main.o
 .rodata.add_tenant.str1.1
                0x0000000000800211       0x63 build/default/debug/main.o
 .rodata.process_entrance_sensor.str1.1
                0x0000000000800274        0xa build/default/debug/main.o
 .rodata.escalator_control.str1.1
                0x000000000080027e       0x1b build/default/debug/main.o
 .rodata.show_number_Of_tenants.str1.1
                0x0000000000800299        0xa build/default/debug/main.o
 .rodata.handle_bluetooth_command.str1.1
                0x00000000008002a3       0x33 build/default/debug/main.o
 *(.gnu.linkonce.r*)
                0x00000000008002d6                . = ALIGN (0x2)
                0x00000000008002d6                _edata = .
                0x00000000008002d6                PROVIDE (__data_end, .)

.bss            0x00000000008002d6      0x44b
                0x00000000008002d6                PROVIDE (__bss_start, .)
 *(.bss)
 *(.bss*)
 .bss.last_tenant_id
                0x00000000008002d6        0x2 build/default/debug/main.o
                0x00000000008002d6                last_tenant_id
 .bss.exit_count
                0x00000000008002d8        0x1 build/default/debug/main.o
                0x00000000008002d8                exit_count
 .bss.entrance_2_count
                0x00000000008002d9        0x1 build/default/debug/main.o
                0x00000000008002d9                entrance_2_count
 .bss.entrance_1_count
                0x00000000008002da        0x1 build/default/debug/main.o
                0x00000000008002da                entrance_1_count
 .bss.people_count
                0x00000000008002db        0x2 build/default/debug/main.o
                0x00000000008002db                people_count
 .bss.floors    0x00000000008002dd        0xc build/default/debug/main.o
                0x00000000008002dd                floors
 .bss.tenants   0x00000000008002e9      0x438 build/default/debug/main.o
                0x00000000008002e9                tenants
 *(COMMON)
                0x0000000000800721                PROVIDE (__bss_end, .)
                0x0000000000000bda                __data_load_start = LOADADDR (.data)
                0x0000000000000cb0                __data_load_end = (__data_load_start + SIZEOF (.data))

.noinit         0x0000000000800721        0x0
                [!provide]                        PROVIDE (__noinit_start, .)
 *(.noinit*)
                [!provide]                        PROVIDE (__noinit_end, .)
                0x0000000000800721                _end = .
                [!provide]                        PROVIDE (__heap_start, .)

.eeprom         0x0000000000810000        0x0
 *(.eeprom*)
                0x0000000000810000                __eeprom_end = .

.fuse
 *(.fuse)
 *(.lfuse)
 *(.hfuse)
 *(.efuse)

.lock
 *(.lock*)

.signature
 *(.signature*)

.user_signatures
 *(.user_signatures*)

.stab
 *(.stab)

.stabstr
 *(.stabstr)

.stab.excl
 *(.stab.excl)

.stab.exclstr
 *(.stab.exclstr)

.stab.index
 *(.stab.index)

.stab.indexstr
 *(.stab.indexstr)

.comment        0x0000000000000000       0x30
 *(.comment)
 .comment       0x0000000000000000       0x30 build/default/debug/main.o
                                         0x31 (size before relaxing)

.note.gnu.avr.deviceinfo
                0x0000000000000000       0x40
 .note.gnu.avr.deviceinfo
                0x0000000000000000       0x40 /Home/microchip/mplabx/v6.20/packs/Microchip/ATmega_DFP/3.1.264/gcc/dev/atmega2560/avr6/crtatmega2560.o

.note.gnu.build-id
 *(.note.gnu.build-id)

.debug
 *(.debug)

.line
 *(.line)

.debug_srcinfo
 *(.debug_srcinfo)

.debug_sfnames
 *(.debug_sfnames)

.debug_aranges  0x0000000000000000      0x100
 *(.debug_aranges)
 .debug_aranges
                0x0000000000000000      0x100 build/default/debug/main.o

.debug_pubnames
 *(.debug_pubnames)

.debug_info     0x0000000000000000     0x209b
 *(.debug_info .gnu.linkonce.wi.*)
 .debug_info    0x0000000000000000      0xbbc /Home/microchip/mplabx/v6.20/packs/Microchip/ATmega_DFP/3.1.264/gcc/dev/atmega2560/avr6/crtatmega2560.o
 .debug_info    0x0000000000000bbc     0x14df build/default/debug/main.o

.debug_abbrev   0x0000000000000000      0xfa5
 *(.debug_abbrev)
 .debug_abbrev  0x0000000000000000      0xb1a /Home/microchip/mplabx/v6.20/packs/Microchip/ATmega_DFP/3.1.264/gcc/dev/atmega2560/avr6/crtatmega2560.o
 .debug_abbrev  0x0000000000000b1a      0x48b build/default/debug/main.o

.debug_line     0x0000000000000000      0xc8b
 *(.debug_line .debug_line.* .debug_line_end)
 .debug_line    0x0000000000000000      0x1fa /Home/microchip/mplabx/v6.20/packs/Microchip/ATmega_DFP/3.1.264/gcc/dev/atmega2560/avr6/crtatmega2560.o
 .debug_line    0x00000000000001fa      0xa91 build/default/debug/main.o

.debug_frame    0x0000000000000000      0x410
 *(.debug_frame)
 .debug_frame   0x0000000000000000      0x410 build/default/debug/main.o

.debug_str      0x0000000000000000      0x96e
 *(.debug_str)
 .debug_str     0x0000000000000000      0x3e6 /Home/microchip/mplabx/v6.20/packs/Microchip/ATmega_DFP/3.1.264/gcc/dev/atmega2560/avr6/crtatmega2560.o
 .debug_str     0x00000000000003e6      0x588 build/default/debug/main.o
                                        0x605 (size before relaxing)

.debug_loc      0x0000000000000000     0x11fc
 *(.debug_loc)
 .debug_loc     0x0000000000000000     0x11fc build/default/debug/main.o

.debug_macinfo
 *(.debug_macinfo)

.debug_weaknames
 *(.debug_weaknames)

.debug_funcnames
 *(.debug_funcnames)

.debug_typenames
 *(.debug_typenames)

.debug_varnames
 *(.debug_varnames)

.debug_pubtypes
 *(.debug_pubtypes)

.debug_ranges   0x0000000000000000      0x198
 *(.debug_ranges)
 .debug_ranges  0x0000000000000000      0x198 build/default/debug/main.o

.debug_macro
 *(.debug_macro)
OUTPUT(dist/default/debug/SMART_MALL.X.debug.elf elf32-avr)
LOAD linker stubs
